target datalayout = "e-m:e-p270:32:32-p271:32:32-p272:64:64-i64:64-i128:128-f80:128-n8:16:32:64-S128"
target triple = "x86_64-pc-linux-gnu"

%struct.Aig_CMan_t_ = type { i32, i32, i32, i32, i32, i32, ptr, i32, i32, [0 x i8] }

; Function Attrs: nounwind uwtable
define void @Aig_CManStoreNum(ptr noundef %0, i32 noundef %1) #0 {
  %3 = alloca ptr, align 8
  %4 = alloca i32, align 4
  store ptr %0, ptr %3, align 8, !tbaa !53
  store i32 %1, ptr %4, align 4, !tbaa !10
  br label %5

5:                                                ; preds = %9, %2
  %6 = load i32, ptr %4, align 4, !tbaa !10
  %7 = and i32 %6, -128
  %8 = icmp ne i32 %7, 0
  br i1 %8, label %9, label %20

9:                                                ; preds = %5
  %10 = load i32, ptr %4, align 4, !tbaa !10
  %11 = and i32 %10, 127
  %12 = or i32 %11, 128
  %13 = trunc i32 %12 to i8
  %14 = load ptr, ptr %3, align 8, !tbaa !53
  %15 = getelementptr inbounds nuw %struct.Aig_CMan_t_, ptr %14, i32 0, i32 6
  %16 = load ptr, ptr %15, align 8, !tbaa !62
  %17 = getelementptr inbounds nuw i8, ptr %16, i32 1
  store ptr %17, ptr %15, align 8, !tbaa !62
  store i8 %13, ptr %16, align 1, !tbaa !63
  %18 = load i32, ptr %4, align 4, !tbaa !10
  %19 = lshr i32 %18, 7
  store i32 %19, ptr %4, align 4, !tbaa !10
  br label %5, !llvm.loop !64

20:                                               ; preds = %5
  %21 = load i32, ptr %4, align 4, !tbaa !10
  %22 = trunc i32 %21 to i8
  %23 = load ptr, ptr %3, align 8, !tbaa !53
  %24 = getelementptr inbounds nuw %struct.Aig_CMan_t_, ptr %23, i32 0, i32 6
  %25 = load ptr, ptr %24, align 8, !tbaa !62
  %26 = getelementptr inbounds nuw i8, ptr %25, i32 1
  store ptr %26, ptr %24, align 8, !tbaa !62
  store i8 %22, ptr %25, align 1, !tbaa !63
  ret void
}

; Function Attrs: nounwind uwtable
define void @Aig_CManAddPo(ptr noundef %0, i32 noundef %1) #0 {
  %3 = alloca ptr, align 8
  %4 = alloca i32, align 4
  store ptr %0, ptr %3, align 8, !tbaa !53
  store i32 %1, ptr %4, align 4, !tbaa !10
  %5 = load ptr, ptr %3, align 8, !tbaa !53
  %6 = getelementptr inbounds nuw %struct.Aig_CMan_t_, ptr %5, i32 0, i32 7
  %7 = load i32, ptr %6, align 8, !tbaa !61
  %8 = icmp eq i32 %7, -1
  br i1 %8, label %9, label %16

9:                                                ; preds = %2
  %10 = load ptr, ptr %3, align 8, !tbaa !53
  %11 = load ptr, ptr %3, align 8, !tbaa !53
  %12 = getelementptr inbounds nuw %struct.Aig_CMan_t_, ptr %11, i32 0, i32 3
  %13 = load i32, ptr %12, align 4, !tbaa !60
  %14 = load i32, ptr %4, align 4, !tbaa !10
  %15 = sub nsw i32 %13, %14
  call void @Aig_CManStoreNum(ptr noundef %10, i32 noundef %15)
  br label %40

16:                                               ; preds = %2
  %17 = load ptr, ptr %3, align 8, !tbaa !53
  %18 = getelementptr inbounds nuw %struct.Aig_CMan_t_, ptr %17, i32 0, i32 7
  %19 = load i32, ptr %18, align 8, !tbaa !61
  %20 = load i32, ptr %4, align 4, !tbaa !10
  %21 = icmp sle i32 %19, %20
  br i1 %21, label %22, label %30

22:                                               ; preds = %16
  %23 = load ptr, ptr %3, align 8, !tbaa !53
  %24 = load i32, ptr %4, align 4, !tbaa !10
  %25 = load ptr, ptr %3, align 8, !tbaa !53
  %26 = getelementptr inbounds nuw %struct.Aig_CMan_t_, ptr %25, i32 0, i32 7
  %27 = load i32, ptr %26, align 8, !tbaa !61
  %28 = sub nsw i32 %24, %27
  %29 = shl i32 %28, 1
  call void @Aig_CManStoreNum(ptr noundef %23, i32 noundef %29)
  br label %39

30:                                               ; preds = %16
  %31 = load ptr, ptr %3, align 8, !tbaa !53
  %32 = load ptr, ptr %3, align 8, !tbaa !53
  %33 = getelementptr inbounds nuw %struct.Aig_CMan_t_, ptr %32, i32 0, i32 7
  %34 = load i32, ptr %33, align 8, !tbaa !61
  %35 = load i32, ptr %4, align 4, !tbaa !10
  %36 = sub nsw i32 %34, %35
  %37 = shl i32 %36, 1
  %38 = or i32 %37, 1
  call void @Aig_CManStoreNum(ptr noundef %31, i32 noundef %38)
  br label %39

39:                                               ; preds = %30, %22
  br label %40

40:                                               ; preds = %39, %9
  %41 = load i32, ptr %4, align 4, !tbaa !10
  %42 = load ptr, ptr %3, align 8, !tbaa !53
  %43 = getelementptr inbounds nuw %struct.Aig_CMan_t_, ptr %42, i32 0, i32 7
  store i32 %41, ptr %43, align 8, !tbaa !61
  %44 = load ptr, ptr %3, align 8, !tbaa !53
  %45 = getelementptr inbounds nuw %struct.Aig_CMan_t_, ptr %44, i32 0, i32 3
  %46 = load i32, ptr %45, align 4, !tbaa !60
  %47 = add nsw i32 %46, 1
  store i32 %47, ptr %45, align 4, !tbaa !60
  ret void
}