; Function Attrs: nofree norecurse nosync nounwind memory(write, argmem: readwrite, inaccessiblemem: none) uwtable
define void @Aig_CManAddPo(ptr noundef captures(none) %0, i32 noundef %1) local_unnamed_addr #13 {
  %3 = getelementptr inbounds nuw i8, ptr %0, i64 32
  %4 = load i32, ptr %3, align 8, !tbaa !53
  %5 = icmp eq i32 %4, -1
  br i1 %5, label %6, label %17

6:                                                ; preds = %2
  %7 = getelementptr inbounds nuw i8, ptr %0, i64 12
  %8 = load i32, ptr %7, align 4, !tbaa !52
  %9 = sub nsw i32 %8, %1
  %.not5.i = icmp ult i32 %9, 128
  br i1 %.not5.i, label %Aig_CManStoreNum.exit, label %.lr.ph.i

.lr.ph.i:                                         ; preds = %6
  %10 = getelementptr inbounds nuw i8, ptr %0, i64 24
  br label %11

11:                                               ; preds = %11, %.lr.ph.i
  %.06.i = phi i32 [ %9, %.lr.ph.i ], [ %16, %11 ]
  %12 = trunc i32 %.06.i to i8
  %13 = or i8 %12, -128
  %14 = load ptr, ptr %10, align 8, !tbaa !54
  %15 = getelementptr inbounds nuw i8, ptr %14, i64 1
  store ptr %15, ptr %10, align 8, !tbaa !54
  store i8 %13, ptr %14, align 1, !tbaa !25
  %16 = lshr i32 %.06.i, 7
  %.not.i = icmp ult i32 %.06.i, 16384
  br i1 %.not.i, label %Aig_CManStoreNum.exit, label %11, !llvm.loop !55

17:                                               ; preds = %2
  %.not = icmp sgt i32 %4, %1
  br i1 %.not, label %28, label %18

18:                                               ; preds = %17
  %19 = sub nsw i32 %1, %4
  %20 = shl i32 %19, 1
  %.not5.i15 = icmp ult i32 %20, 128
  br i1 %.not5.i15, label %Aig_CManStoreNum.exit, label %.lr.ph.i16

.lr.ph.i16:                                       ; preds = %18
  %21 = getelementptr inbounds nuw i8, ptr %0, i64 24
  br label %22

22:                                               ; preds = %22, %.lr.ph.i16
  %.06.i17 = phi i32 [ %20, %.lr.ph.i16 ], [ %27, %22 ]
  %23 = trunc i32 %.06.i17 to i8
  %24 = or i8 %23, -128
  %25 = load ptr, ptr %21, align 8, !tbaa !54
  %26 = getelementptr inbounds nuw i8, ptr %25, i64 1
  store ptr %26, ptr %21, align 8, !tbaa !54
  store i8 %24, ptr %25, align 1, !tbaa !25
  %27 = lshr i32 %.06.i17, 7
  %.not.i18 = icmp ult i32 %.06.i17, 16384
  br i1 %.not.i18, label %Aig_CManStoreNum.exit, label %22, !llvm.loop !55

28:                                               ; preds = %17
  %29 = sub nsw i32 %4, %1
  %30 = shl i32 %29, 1
  %31 = or disjoint i32 %30, 1
  %.not5.i21 = icmp ult i32 %30, 128
  br i1 %.not5.i21, label %Aig_CManStoreNum.exit, label %.lr.ph.i22

.lr.ph.i22:                                       ; preds = %28
  %32 = getelementptr inbounds nuw i8, ptr %0, i64 24
  br label %33

33:                                               ; preds = %33, %.lr.ph.i22
  %.06.i23 = phi i32 [ %31, %.lr.ph.i22 ], [ %38, %33 ]
  %34 = trunc i32 %.06.i23 to i8
  %35 = or i8 %34, -128
  %36 = load ptr, ptr %32, align 8, !tbaa !54
  %37 = getelementptr inbounds nuw i8, ptr %36, i64 1
  store ptr %37, ptr %32, align 8, !tbaa !54
  store i8 %35, ptr %36, align 1, !tbaa !25
  %38 = lshr i32 %.06.i23, 7
  %.not.i24 = icmp ult i32 %.06.i23, 16384
  br i1 %.not.i24, label %Aig_CManStoreNum.exit, label %33, !llvm.loop !55

Aig_CManStoreNum.exit:                            ; preds = %22, %33, %11, %28, %18, %6
  %.0.lcssa.i19.sink = phi i32 [ %9, %6 ], [ %20, %18 ], [ %31, %28 ], [ %16, %11 ], [ %38, %33 ], [ %27, %22 ]
  %39 = trunc nuw i32 %.0.lcssa.i19.sink to i8
  %40 = getelementptr inbounds nuw i8, ptr %0, i64 24
  %41 = load ptr, ptr %40, align 8, !tbaa !54
  %42 = getelementptr inbounds nuw i8, ptr %41, i64 1
  store ptr %42, ptr %40, align 8, !tbaa !54
  store i8 %39, ptr %41, align 1, !tbaa !25
  store i32 %1, ptr %3, align 8, !tbaa !53
  %43 = getelementptr inbounds nuw i8, ptr %0, i64 12
  %44 = load i32, ptr %43, align 4, !tbaa !52
  %45 = add nsw i32 %44, 1
  store i32 %45, ptr %43, align 4, !tbaa !52
  ret void
}